; Function Attrs: mustprogress uwtable
define void @_ZN8UCaseMapC2EPKcjP10UErrorCode(ptr noundef nonnull align 8 dereferenceable(48) initializes((0, 8), (40, 48)) %0, ptr noundef %1, i32 noundef %2, ptr noundef %3) unnamed_addr #1 align 2 {
  store ptr null, ptr %0, align 8, !tbaa !15
  %5 = getelementptr inbounds nuw i8, ptr %0, i64 40
  store i32 0, ptr %5, align 8, !tbaa !18
  %6 = getelementptr inbounds nuw i8, ptr %0, i64 44
  store i32 %2, ptr %6, align 4, !tbaa !19
  %7 = load i32, ptr %3, align 4, !tbaa !13
  %8 = icmp slt i32 %7, 1
  br i1 %8, label %9, label %ucasemap_setLocale_77.exit

9:                                                ; preds = %4
  %.not23.i = icmp eq ptr %1, null
  br i1 %.not23.i, label %15, label %10

10:                                               ; preds = %9
  %11 = load i8, ptr %1, align 1, !tbaa !20
  %12 = icmp eq i8 %11, 0
  br i1 %12, label %13, label %15

13:                                               ; preds = %10
  %14 = getelementptr inbounds nuw i8, ptr %0, i64 8
  store i8 0, ptr %14, align 8, !tbaa !20
  br label %.sink.split.i

15:                                               ; preds = %10, %9
  %16 = getelementptr inbounds nuw i8, ptr %0, i64 8
  %17 = tail call i32 @uloc_getName_77(ptr noundef %1, ptr noundef nonnull %16, i32 noundef 32, ptr noundef nonnull %3)
  %18 = load i32, ptr %3, align 4, !tbaa !13
  %19 = icmp eq i32 %18, 15
  %20 = icmp eq i32 %17, 32
  %or.cond.i = select i1 %19, i1 true, i1 %20
  br i1 %or.cond.i, label %21, label %.critedge.i

21:                                               ; preds = %15
  store i32 0, ptr %3, align 4, !tbaa !13
  %22 = tail call i32 @uloc_getLanguage_77(ptr noundef %1, ptr noundef nonnull %16, i32 noundef 32, ptr noundef nonnull %3)
  %23 = icmp eq i32 %22, 32
  br i1 %23, label %.critedge.thread.i, label %..critedge_crit_edge.i

..critedge_crit_edge.i:                           ; preds = %21
  %.pre.i = load i32, ptr %3, align 4, !tbaa !13
  br label %.critedge.i

.critedge.thread.i:                               ; preds = %21
  store i32 15, ptr %3, align 4, !tbaa !13
  br label %28

.critedge.i:                                      ; preds = %..critedge_crit_edge.i, %15
  %24 = phi i32 [ %.pre.i, %..critedge_crit_edge.i ], [ %18, %15 ]
  %25 = icmp sgt i32 %24, 0
  br i1 %25, label %28, label %26

26:                                               ; preds = %.critedge.i
  %27 = tail call i32 @ucase_getCaseLocale_77(ptr noundef nonnull %16)
  br label %.sink.split.i

28:                                               ; preds = %.critedge.i, %.critedge.thread.i
  store i8 0, ptr %16, align 8, !tbaa !20
  br label %.sink.split.i

.sink.split.i:                                    ; preds = %28, %26, %13
  %.sink.i = phi i32 [ %27, %26 ], [ 1, %28 ], [ 1, %13 ]
  store i32 %.sink.i, ptr %5, align 8, !tbaa !18
  br label %ucasemap_setLocale_77.exit

ucasemap_setLocale_77.exit:                       ; preds = %4, %.sink.split.i
  ret void
}